; Function Attrs: nounwind uwtable
define dso_local void @llvm_emit_local_var_alloca(ptr noundef %0, ptr noundef %1) local_unnamed_addr #0 {
  tail call void @llvm_emit_and_set_decl_alloca(ptr noundef %0, ptr noundef %1)
  %3 = getelementptr inbounds i8, ptr %0, i64 304
  %4 = load ptr, ptr %3, align 8
  %.not = icmp eq ptr %4, null
  br i1 %.not, label %6, label %5

5:                                                ; preds = %2
  tail call void @llvm_emit_debug_local_var(ptr noundef nonnull %0, ptr noundef %1) #10
  br label %6

6:                                                ; preds = %5, %2
  ret void
}